target datalayout = "e-m:e-p270:32:32-p271:32:32-p272:64:64-i64:64-i128:128-f80:128-n8:16:32:64-S128"
target triple = "x86_64-pc-linux-gnu"

%"class.pybind11::gil_scoped_acquire" = type <{ ptr, i8, i8, [6 x i8] }>
%"struct.pybind11::detail::internals" = type { %"class.std::unordered_map", %"class.std::unordered_map.5", %"class.std::unordered_multimap", %"class.std::unordered_set", %"class.std::unordered_map.60", %"class.std::unordered_map.74", %"class.std::forward_list", %"class.std::unordered_map.97", %"class.std::forward_list.117", ptr, ptr, ptr, %struct._Py_tss_t, %struct._Py_tss_t, ptr, %"class.std::__cxx11::basic_string" }
%"class.std::unordered_map" = type { %"class.std::_Hashtable" }
%"class.std::_Hashtable" = type { ptr, i64, %"struct.std::__detail::_Hash_node_base", i64, %"struct.std::__detail::_Prime_rehash_policy", ptr }
%"struct.std::__detail::_Hash_node_base" = type { ptr }
%"struct.std::__detail::_Prime_rehash_policy" = type { float, i64 }
%"class.std::unordered_map.5" = type { %"class.std::_Hashtable.6" }
%"class.std::_Hashtable.6" = type { ptr, i64, %"struct.std::__detail::_Hash_node_base", i64, %"struct.std::__detail::_Prime_rehash_policy", ptr }
%"class.std::unordered_multimap" = type { %"class.std::_Hashtable.24" }
%"class.std::_Hashtable.24" = type { ptr, i64, %"struct.std::__detail::_Hash_node_base", i64, %"struct.std::__detail::_Prime_rehash_policy", ptr }
%"class.std::unordered_set" = type { %"class.std::_Hashtable.43" }
%"class.std::_Hashtable.43" = type { ptr, i64, %"struct.std::__detail::_Hash_node_base", i64, %"struct.std::__detail::_Prime_rehash_policy", ptr }
%"class.std::unordered_map.60" = type { %"class.std::_Hashtable.61" }
%"class.std::_Hashtable.61" = type { ptr, i64, %"struct.std::__detail::_Hash_node_base", i64, %"struct.std::__detail::_Prime_rehash_policy", ptr }
%"class.std::unordered_map.74" = type { %"class.std::_Hashtable.75" }
%"class.std::_Hashtable.75" = type { ptr, i64, %"struct.std::__detail::_Hash_node_base", i64, %"struct.std::__detail::_Prime_rehash_policy", ptr }
%"class.std::forward_list" = type { %"struct.std::_Fwd_list_base" }
%"struct.std::_Fwd_list_base" = type { %"struct.std::_Fwd_list_base<void (*)(std::__exception_ptr::exception_ptr), std::allocator<void (*)(std::__exception_ptr::exception_ptr)>>::_Fwd_list_impl" }
%"struct.std::_Fwd_list_base<void (*)(std::__exception_ptr::exception_ptr), std::allocator<void (*)(std::__exception_ptr::exception_ptr)>>::_Fwd_list_impl" = type { %"struct.std::_Fwd_list_node_base" }
%"struct.std::_Fwd_list_node_base" = type { ptr }
%"class.std::unordered_map.97" = type { %"class.std::_Hashtable.98" }
%"class.std::_Hashtable.98" = type { ptr, i64, %"struct.std::__detail::_Hash_node_base", i64, %"struct.std::__detail::_Prime_rehash_policy", ptr }
%"class.std::forward_list.117" = type { %"struct.std::_Fwd_list_base.118" }
%"struct.std::_Fwd_list_base.118" = type { %"struct.std::_Fwd_list_base<std::__cxx11::basic_string<char>, std::allocator<std::__cxx11::basic_string<char>>>::_Fwd_list_impl" }
%"struct.std::_Fwd_list_base<std::__cxx11::basic_string<char>, std::allocator<std::__cxx11::basic_string<char>>>::_Fwd_list_impl" = type { %"struct.std::_Fwd_list_node_base" }
%struct._Py_tss_t = type { i32, i32 }
%"class.std::__cxx11::basic_string" = type { %"struct.std::__cxx11::basic_string<char>::_Alloc_hider", i64, %union.anon }
%"struct.std::__cxx11::basic_string<char>::_Alloc_hider" = type { ptr }
%union.anon = type { i64, [8 x i8] }
%"class.pybind11::gil_scoped_release" = type <{ ptr, i8, i8, [6 x i8] }>

; Function Attrs: mustprogress nounwind uwtable
define linkonce_odr hidden void @_ZN8pybind1118gil_scoped_releaseD2Ev(ptr noundef nonnull align 8 dereferenceable(10) %0) unnamed_addr #5 comdat align 2 personality ptr @__gxx_personality_v0 {
  %2 = alloca ptr, align 8
  %3 = alloca %struct._Py_tss_t, align 4
  store ptr %0, ptr %2, align 8, !tbaa !1309
  %4 = load ptr, ptr %2, align 8
  %5 = getelementptr inbounds nuw %"class.pybind11::gil_scoped_release", ptr %4, i32 0, i32 0
  %6 = load ptr, ptr %5, align 8, !tbaa !1314
  %7 = icmp ne ptr %6, null
  br i1 %7, label %9, label %8

8:                                                ; preds = %1
  br label %29

9:                                                ; preds = %1
  %10 = getelementptr inbounds nuw %"class.pybind11::gil_scoped_release", ptr %4, i32 0, i32 2
  %11 = load i8, ptr %10, align 1, !tbaa !1313, !range !64, !noundef !65
  %12 = trunc i8 %11 to i1
  br i1 %12, label %13, label %17

13:                                               ; preds = %9
  %14 = getelementptr inbounds nuw %"class.pybind11::gil_scoped_release", ptr %4, i32 0, i32 0
  %15 = load ptr, ptr %14, align 8, !tbaa !1314
  invoke void @PyEval_RestoreThread(ptr noundef %15)
          to label %16 unwind label %30

16:                                               ; preds = %13
  br label %17

17:                                               ; preds = %16, %9
  %18 = getelementptr inbounds nuw %"class.pybind11::gil_scoped_release", ptr %4, i32 0, i32 1
  %19 = load i8, ptr %18, align 8, !tbaa !1311, !range !64, !noundef !65
  %20 = trunc i8 %19 to i1
  br i1 %20, label %21, label %29

21:                                               ; preds = %17
  call void @llvm.lifetime.start.p0(i64 8, ptr %3) #23
  %22 = invoke noundef nonnull align 8 dereferenceable(488) ptr @_ZN8pybind116detail13get_internalsEv()
          to label %23 unwind label %30

23:                                               ; preds = %21
  %24 = getelementptr inbounds nuw %"struct.pybind11::detail::internals", ptr %22, i32 0, i32 12
  call void @llvm.memcpy.p0.p0.i64(ptr align 4 %3, ptr align 8 %24, i64 8, i1 false), !tbaa.struct !1315
  %25 = getelementptr inbounds nuw %"class.pybind11::gil_scoped_release", ptr %4, i32 0, i32 0
  %26 = load ptr, ptr %25, align 8, !tbaa !1314
  %27 = invoke i32 @PyThread_tss_set(ptr noundef %3, ptr noundef %26)
          to label %28 unwind label %30

28:                                               ; preds = %23
  call void @llvm.lifetime.end.p0(i64 8, ptr %3) #23
  br label %29

29:                                               ; preds = %8, %28, %17
  ret void

30:                                               ; preds = %23, %21, %13
  %31 = landingpad { ptr, i32 }
          catch ptr null
  %32 = extractvalue { ptr, i32 } %31, 0
  call void @__clang_call_terminate(ptr %32) #27
  unreachable
}

; Function Attrs: mustprogress uwtable
define linkonce_odr hidden void @_ZN8pybind1118gil_scoped_releaseC2Eb(ptr noundef nonnull align 8 dereferenceable(10) %0, i1 noundef zeroext %1) unnamed_addr #4 comdat align 2 {
  %3 = alloca ptr, align 8
  %4 = alloca i8, align 1
  %5 = alloca ptr, align 8
  %6 = alloca %struct._Py_tss_t, align 4
  store ptr %0, ptr %3, align 8, !tbaa !1309
  %7 = zext i1 %1 to i8
  store i8 %7, ptr %4, align 1, !tbaa !186
  %8 = load ptr, ptr %3, align 8
  %9 = getelementptr inbounds nuw %"class.pybind11::gil_scoped_release", ptr %8, i32 0, i32 1
  %10 = load i8, ptr %4, align 1, !tbaa !186, !range !64, !noundef !65
  %11 = trunc i8 %10 to i1
  %12 = zext i1 %11 to i8
  store i8 %12, ptr %9, align 8, !tbaa !1311
  %13 = getelementptr inbounds nuw %"class.pybind11::gil_scoped_release", ptr %8, i32 0, i32 2
  store i8 1, ptr %13, align 1, !tbaa !1313
  call void @llvm.lifetime.start.p0(i64 8, ptr %5) #23
  %14 = call noundef nonnull align 8 dereferenceable(488) ptr @_ZN8pybind116detail13get_internalsEv()
  store ptr %14, ptr %5, align 8, !tbaa !16
  %15 = call ptr @PyEval_SaveThread()
  %16 = getelementptr inbounds nuw %"class.pybind11::gil_scoped_release", ptr %8, i32 0, i32 0
  store ptr %15, ptr %16, align 8, !tbaa !1314
  %17 = load i8, ptr %4, align 1, !tbaa !186, !range !64, !noundef !65
  %18 = trunc i8 %17 to i1
  br i1 %18, label %19, label %23

19:                                               ; preds = %2
  call void @llvm.lifetime.start.p0(i64 8, ptr %6) #23
  %20 = load ptr, ptr %5, align 8, !tbaa !16
  %21 = getelementptr inbounds nuw %"struct.pybind11::detail::internals", ptr %20, i32 0, i32 12
  call void @llvm.memcpy.p0.p0.i64(ptr align 4 %6, ptr align 8 %21, i64 8, i1 false), !tbaa.struct !1315
  %22 = call i32 @PyThread_tss_set(ptr noundef %6, ptr noundef null)
  call void @llvm.lifetime.end.p0(i64 8, ptr %6) #23
  br label %23

23:                                               ; preds = %19, %2
  call void @llvm.lifetime.end.p0(i64 8, ptr %5) #23
  ret void
}

; Function Attrs: mustprogress uwtable
define internal void @_ZN12_GLOBAL__N_117gil_acquire_innerIN8pybind1118gil_scoped_acquireENS1_18gil_scoped_releaseEEEvv() #4 personality ptr @__gxx_personality_v0 {
  %1 = alloca %"class.pybind11::gil_scoped_acquire", align 8
  %2 = alloca %"class.pybind11::gil_scoped_acquire", align 8
  %3 = alloca ptr, align 8
  %4 = alloca i32, align 4
  %5 = alloca %"class.pybind11::gil_scoped_release", align 8
  call void @llvm.lifetime.start.p0(i64 16, ptr %1) #23
  call void @_ZN8pybind1118gil_scoped_acquireC2Ev(ptr noundef nonnull align 8 dereferenceable(10) %1)
  call void @llvm.lifetime.start.p0(i64 16, ptr %2) #23
  invoke void @_ZN8pybind1118gil_scoped_acquireC2Ev(ptr noundef nonnull align 8 dereferenceable(10) %2)
          to label %6 unwind label %8

6:                                                ; preds = %0
  call void @llvm.lifetime.start.p0(i64 16, ptr %5) #23
  invoke void @_ZN8pybind1118gil_scoped_releaseC2Eb(ptr noundef nonnull align 8 dereferenceable(10) %5, i1 noundef zeroext false)
          to label %7 unwind label %12

7:                                                ; preds = %6
  call void @_ZN8pybind1118gil_scoped_releaseD2Ev(ptr noundef nonnull align 8 dereferenceable(10) %5) #23
  call void @llvm.lifetime.end.p0(i64 16, ptr %5) #23
  call void @_ZN8pybind1118gil_scoped_acquireD2Ev(ptr noundef nonnull align 8 dereferenceable(10) %2) #23
  call void @llvm.lifetime.end.p0(i64 16, ptr %2) #23
  call void @_ZN8pybind1118gil_scoped_acquireD2Ev(ptr noundef nonnull align 8 dereferenceable(10) %1) #23
  call void @llvm.lifetime.end.p0(i64 16, ptr %1) #23
  ret void

8:                                                ; preds = %0
  %9 = landingpad { ptr, i32 }
          cleanup
  %10 = extractvalue { ptr, i32 } %9, 0
  store ptr %10, ptr %3, align 8
  %11 = extractvalue { ptr, i32 } %9, 1
  store i32 %11, ptr %4, align 4
  br label %16

12:                                               ; preds = %6
  %13 = landingpad { ptr, i32 }
          cleanup
  %14 = extractvalue { ptr, i32 } %13, 0
  store ptr %14, ptr %3, align 8
  %15 = extractvalue { ptr, i32 } %13, 1
  store i32 %15, ptr %4, align 4
  call void @llvm.lifetime.end.p0(i64 16, ptr %5) #23
  call void @_ZN8pybind1118gil_scoped_acquireD2Ev(ptr noundef nonnull align 8 dereferenceable(10) %2) #23
  br label %16

16:                                               ; preds = %12, %8
  call void @llvm.lifetime.end.p0(i64 16, ptr %2) #23
  call void @_ZN8pybind1118gil_scoped_acquireD2Ev(ptr noundef nonnull align 8 dereferenceable(10) %1) #23
  call void @llvm.lifetime.end.p0(i64 16, ptr %1) #23
  br label %17

17:                                               ; preds = %16
  %18 = load ptr, ptr %3, align 8
  %19 = load i32, ptr %4, align 4
  %20 = insertvalue { ptr, i32 } poison, ptr %18, 0
  %21 = insertvalue { ptr, i32 } %20, i32 %19, 1
  resume { ptr, i32 } %21
}