; Function Attrs: mustprogress uwtable
define internal void @_ZN12_GLOBAL__N_117gil_acquire_innerIN8pybind1118gil_scoped_acquireENS1_18gil_scoped_releaseEEEvv() #5 personality ptr @__gxx_personality_v0 {
  %1 = alloca %"class.pybind11::gil_scoped_acquire", align 8
  %2 = alloca %"class.pybind11::gil_scoped_acquire", align 8
  call void @llvm.lifetime.start.p0(i64 16, ptr nonnull %1) #27
  call void @_ZN8pybind1118gil_scoped_acquireC2Ev(ptr noundef nonnull align 8 dereferenceable(10) %1)
  call void @llvm.lifetime.start.p0(i64 16, ptr nonnull %2) #27
  invoke void @_ZN8pybind1118gil_scoped_acquireC2Ev(ptr noundef nonnull align 8 dereferenceable(10) %2)
          to label %3 unwind label %10

3:                                                ; preds = %0
  %4 = invoke noundef nonnull align 8 dereferenceable(488) ptr @_ZN8pybind116detail13get_internalsEv()
          to label %.noexc unwind label %12

.noexc:                                           ; preds = %3
  %5 = invoke ptr @PyEval_SaveThread()
          to label %_ZN8pybind1118gil_scoped_releaseC2Eb.exit unwind label %12

_ZN8pybind1118gil_scoped_releaseC2Eb.exit:        ; preds = %.noexc
  %.not.i = icmp eq ptr %5, null
  br i1 %.not.i, label %_ZN8pybind1118gil_scoped_releaseD2Ev.exit, label %6

6:                                                ; preds = %_ZN8pybind1118gil_scoped_releaseC2Eb.exit
  invoke void @PyEval_RestoreThread(ptr noundef nonnull %5)
          to label %_ZN8pybind1118gil_scoped_releaseD2Ev.exit unwind label %7

7:                                                ; preds = %6
  %8 = landingpad { ptr, i32 }
          catch ptr null
  %9 = extractvalue { ptr, i32 } %8, 0
  call void @__clang_call_terminate(ptr %9) #28
  unreachable

_ZN8pybind1118gil_scoped_releaseD2Ev.exit:        ; preds = %6, %_ZN8pybind1118gil_scoped_releaseC2Eb.exit
  call void @_ZN8pybind1118gil_scoped_acquireD2Ev(ptr noundef nonnull align 8 dereferenceable(10) %2) #27
  call void @llvm.lifetime.end.p0(i64 16, ptr nonnull %2) #27
  call void @_ZN8pybind1118gil_scoped_acquireD2Ev(ptr noundef nonnull align 8 dereferenceable(10) %1) #27
  call void @llvm.lifetime.end.p0(i64 16, ptr nonnull %1) #27
  ret void

10:                                               ; preds = %0
  %11 = landingpad { ptr, i32 }
          cleanup
  br label %14

12:                                               ; preds = %.noexc, %3
  %13 = landingpad { ptr, i32 }
          cleanup
  call void @_ZN8pybind1118gil_scoped_acquireD2Ev(ptr noundef nonnull align 8 dereferenceable(10) %2) #27
  br label %14

14:                                               ; preds = %12, %10
  %.pn = phi { ptr, i32 } [ %13, %12 ], [ %11, %10 ]
  call void @llvm.lifetime.end.p0(i64 16, ptr nonnull %2) #27
  call void @_ZN8pybind1118gil_scoped_acquireD2Ev(ptr noundef nonnull align 8 dereferenceable(10) %1) #27
  call void @llvm.lifetime.end.p0(i64 16, ptr nonnull %1) #27
  resume { ptr, i32 } %.pn
}